; Function Attrs: mustprogress uwtable
define void @_ZN6google8protobuf13SourceContext9MergeImplERNS0_11MessageLiteERKS2_(ptr noundef nonnull align 8 dereferenceable(16) %to_msg, ptr nocapture noundef nonnull readonly align 8 dereferenceable(16) %from_msg) #3 align 2 {
entry:
  %0 = getelementptr inbounds i8, ptr %from_msg, i64 16
  %1 = load ptr, ptr %0, align 8
  %2 = ptrtoint ptr %1 to i64
  %and.i.i = and i64 %2, -4
  %3 = inttoptr i64 %and.i.i to ptr
  %call2 = tail call noundef zeroext i1 @_ZNKSt7__cxx1112basic_stringIcSt11char_traitsIcESaIcEE5emptyEv(ptr noundef nonnull align 8 dereferenceable(32) %3) #15
  br i1 %call2, label %if.end, label %if.then

if.then:                                          ; preds = %entry
  %4 = load ptr, ptr %0, align 8
  %5 = ptrtoint ptr %4 to i64
  %and.i.i5 = and i64 %5, -4
  %6 = inttoptr i64 %and.i.i5 to ptr
  %7 = getelementptr inbounds i8, ptr %to_msg, i64 16
  %_internal_metadata_.i = getelementptr inbounds i8, ptr %to_msg, i64 8
  %8 = load i64, ptr %_internal_metadata_.i, align 8
  %and.i.i.i = and i64 %8, 1
  %tobool.i.i.not.i = icmp eq i64 %and.i.i.i, 0
  br i1 %tobool.i.i.not.i, label %if.else.i.i, label %if.then.i.i

if.then.i.i:                                      ; preds = %if.then
  %and.i.i6 = and i64 %8, -2
  %9 = inttoptr i64 %and.i.i6 to ptr
  %10 = load ptr, ptr %9, align 8
  br label %_ZNK6google8protobuf11MessageLite8GetArenaEv.exit

if.else.i.i:                                      ; preds = %if.then
  %11 = inttoptr i64 %8 to ptr
  br label %_ZNK6google8protobuf11MessageLite8GetArenaEv.exit

_ZNK6google8protobuf11MessageLite8GetArenaEv.exit: ; preds = %if.then.i.i, %if.else.i.i
  %retval.i.0.i = phi ptr [ %10, %if.then.i.i ], [ %11, %if.else.i.i ]
  tail call void @_ZN6google8protobuf8internal14ArenaStringPtr3SetIJEEEvRKNSt7__cxx1112basic_stringIcSt11char_traitsIcESaIcEEEPNS0_5ArenaE(ptr noundef nonnull align 8 dereferenceable(8) %7, ptr noundef nonnull align 8 dereferenceable(32) %6, ptr noundef %retval.i.0.i)
  br label %if.end

if.end:                                           ; preds = %_ZNK6google8protobuf11MessageLite8GetArenaEv.exit, %entry
  %_internal_metadata_4 = getelementptr inbounds i8, ptr %from_msg, i64 8
  %12 = load i64, ptr %_internal_metadata_4, align 8
  %and.i18 = and i64 %12, 1
  %tobool.i19.not = icmp eq i64 %and.i18, 0
  br i1 %tobool.i19.not, label %_ZN6google8protobuf8internal16InternalMetadata9MergeFromINS0_15UnknownFieldSetEEEvRKS2_.exit, label %if.then.i10

if.then.i10:                                      ; preds = %if.end
  %_internal_metadata_ = getelementptr inbounds i8, ptr %to_msg, i64 8
  %and.i = and i64 %12, -2
  %13 = inttoptr i64 %and.i to ptr
  %unknown_fields.i = getelementptr inbounds i8, ptr %13, i64 8
  tail call void @_ZN6google8protobuf8internal16InternalMetadata11DoMergeFromINS0_15UnknownFieldSetEEEvRKT_(ptr noundef nonnull align 8 dereferenceable(8) %_internal_metadata_, ptr noundef nonnull align 8 dereferenceable(24) %unknown_fields.i)
  br label %_ZN6google8protobuf8internal16InternalMetadata9MergeFromINS0_15UnknownFieldSetEEEvRKS2_.exit

_ZN6google8protobuf8internal16InternalMetadata9MergeFromINS0_15UnknownFieldSetEEEvRKS2_.exit: ; preds = %if.then.i10, %if.end
  ret void
}